; ModuleID = 'source-C-CXX/27/1220.c'
source_filename = "source-C-CXX/27/1220.c"
target datalayout = "e-m:e-p270:32:32-p271:32:32-p272:64:64-i64:64-f80:128-n8:16:32:64-S128"
target triple = "x86_64-pc-linux-gnu"

@.str = private unnamed_addr constant [4 x i8] c"%d,\00", align 1
@.str.1 = private unnamed_addr constant [3 x i8] c"%d\00", align 1

; Function Attrs: nounwind sspstrong uwtable
define dso_local i32 @main() local_unnamed_addr #0 {
  %1 = alloca [100000 x i8], align 16
  %2 = alloca [300 x i32], align 16
  %3 = getelementptr inbounds [100000 x i8], [100000 x i8]* %1, i64 0, i64 0
  call void @llvm.lifetime.start.p0i8(i64 100000, i8* nonnull %3) #5
  %4 = bitcast [300 x i32]* %2 to i8*
  call void @llvm.lifetime.start.p0i8(i64 1200, i8* nonnull %4) #5
  call void @llvm.memset.p0i8.i64(i8* noundef nonnull align 16 dereferenceable(1200) %4, i8 0, i64 1200, i1 false)
  %5 = call i32 (i8*, ...) bitcast (i32 (...)* @gets to i32 (i8*, ...)*)(i8* nonnull %3) #5
  br label %6

6:                                                ; preds = %29, %0
  %7 = phi i64 [ %26, %29 ], [ 0, %0 ]
  %8 = phi i32 [ %30, %29 ], [ 0, %0 ]
  %9 = zext i32 %8 to i64
  %10 = getelementptr inbounds [300 x i32], [300 x i32]* %2, i64 0, i64 %9
  br label %11

11:                                               ; preds = %23, %6
  %12 = phi i64 [ %7, %6 ], [ %24, %23 ]
  %13 = getelementptr inbounds [100000 x i8], [100000 x i8]* %1, i64 0, i64 %12
  %14 = load i8, i8* %13, align 1, !tbaa !5
  switch i8 %14, label %19 [
    i8 0, label %15
    i8 32, label %25
  ]

15:                                               ; preds = %11
  %16 = icmp eq i32 %8, 0
  br i1 %16, label %38, label %17

17:                                               ; preds = %15
  %18 = zext i32 %8 to i64
  br label %31

19:                                               ; preds = %11
  %20 = load i32, i32* %10, align 4, !tbaa !8
  %21 = add nsw i32 %20, 1
  store i32 %21, i32* %10, align 4, !tbaa !8
  %22 = add nuw i64 %12, 1
  br label %23

23:                                               ; preds = %19, %25, %25
  %24 = phi i64 [ %22, %19 ], [ %26, %25 ], [ %26, %25 ]
  br label %11, !llvm.loop !10

25:                                               ; preds = %11
  %26 = add nuw i64 %12, 1
  %27 = getelementptr inbounds [100000 x i8], [100000 x i8]* %1, i64 0, i64 %26
  %28 = load i8, i8* %27, align 1, !tbaa !5
  switch i8 %28, label %29 [
    i8 32, label %23
    i8 0, label %23
  ]

29:                                               ; preds = %25
  %30 = add nuw nsw i32 %8, 1
  br label %6, !llvm.loop !10

31:                                               ; preds = %17, %31
  %32 = phi i64 [ 0, %17 ], [ %36, %31 ]
  %33 = getelementptr inbounds [300 x i32], [300 x i32]* %2, i64 0, i64 %32
  %34 = load i32, i32* %33, align 4, !tbaa !8
  %35 = call i32 (i8*, ...) @printf(i8* nonnull dereferenceable(1) getelementptr inbounds ([4 x i8], [4 x i8]* @.str, i64 0, i64 0), i32 %34)
  %36 = add nuw nsw i64 %32, 1
  %37 = icmp eq i64 %36, %18
  br i1 %37, label %38, label %31, !llvm.loop !12

38:                                               ; preds = %31, %15
  %39 = zext i32 %8 to i64
  %40 = getelementptr inbounds [300 x i32], [300 x i32]* %2, i64 0, i64 %39
  %41 = load i32, i32* %40, align 4, !tbaa !8
  %42 = call i32 (i8*, ...) @printf(i8* nonnull dereferenceable(1) getelementptr inbounds ([3 x i8], [3 x i8]* @.str.1, i64 0, i64 0), i32 %41)
  call void @llvm.lifetime.end.p0i8(i64 1200, i8* nonnull %4) #5
  call void @llvm.lifetime.end.p0i8(i64 100000, i8* nonnull %3) #5
  ret i32 0
}

; Function Attrs: argmemonly mustprogress nofree nosync nounwind willreturn
declare void @llvm.lifetime.start.p0i8(i64 immarg, i8* nocapture) #1

; Function Attrs: argmemonly mustprogress nofree nounwind willreturn writeonly
declare void @llvm.memset.p0i8.i64(i8* nocapture writeonly, i8, i64, i1 immarg) #2

declare i32 @gets(...) local_unnamed_addr #3

; Function Attrs: nofree nounwind
declare noundef i32 @printf(i8* nocapture noundef readonly, ...) local_unnamed_addr #4

; Function Attrs: argmemonly mustprogress nofree nosync nounwind willreturn
declare void @llvm.lifetime.end.p0i8(i64 immarg, i8* nocapture) #1


!llvm.module.flags = !{!0, !1, !2, !3}
!llvm.ident = !{!4}

!0 = !{i32 1, !"wchar_size", i32 4}
!1 = !{i32 7, !"PIC Level", i32 2}
!2 = !{i32 7, !"PIE Level", i32 2}
!3 = !{i32 7, !"uwtable", i32 1}
!4 = !{!"clang version 13.0.0"}
!5 = !{!6, !6, i64 0}
!6 = !{!"omnipotent char", !7, i64 0}
!7 = !{!"Simple C/C++ TBAA"}
!8 = !{!9, !9, i64 0}
!9 = !{!"int", !6, i64 0}
!10 = distinct !{!10, !11}
!11 = !{!"llvm.loop.mustprogress"}
!12 = distinct !{!12, !11}
